; Function Attrs: mustprogress nounwind willreturn uwtable
define hidden void @_ZN6hermes8VariableD2Ev(ptr noundef nonnull readonly align 8 dereferenceable(65) %this) unnamed_addr #12 align 2 {
entry:
  %Users.i = getelementptr inbounds i8, ptr %this, i64 8
  %0 = load ptr, ptr %Users.i, align 8
  %add.ptr.i.i.i.i.i = getelementptr inbounds i8, ptr %this, i64 24
  %cmp.i.i.i.i = icmp eq ptr %0, %add.ptr.i.i.i.i.i
  br i1 %cmp.i.i.i.i, label %_ZN6hermes5ValueD2Ev.exit, label %if.then.i.i.i

if.then.i.i.i:                                    ; preds = %entry
  tail call void @free(ptr noundef %0) #26
  br label %_ZN6hermes5ValueD2Ev.exit

_ZN6hermes5ValueD2Ev.exit:                        ; preds = %entry, %if.then.i.i.i
  ret void
}